target datalayout = "e-m:e-p270:32:32-p271:32:32-p272:64:64-i64:64-i128:128-f80:128-n8:16:32:64-S128"
target triple = "x86_64-pc-linux-gnu"

%"struct.QListData::Data" = type { %"class.QtPrivate::RefCount", i32, i32, i32, [1 x ptr] }
%"class.QtPrivate::RefCount" = type { %class.QBasicAtomicInteger }
%class.QBasicAtomicInteger = type { %"struct.std::atomic" }
%"struct.std::atomic" = type { %"struct.std::__atomic_base" }
%"struct.std::__atomic_base" = type { i32 }
%struct.QMapDataBase = type { %"class.QtPrivate::RefCount", i32, %struct.QMapNodeBase, ptr }
%struct.QMapNodeBase = type { i64, ptr, ptr }
%class.GLLogStream = type { %class.QObject, i32, %class.QList, %class.QMultiMap }
%class.QObject = type { ptr, %class.QScopedPointer }
%class.QScopedPointer = type { ptr }
%class.QList = type { %union.anon }
%union.anon = type { %struct.QListData }
%struct.QListData = type { ptr }
%class.QMultiMap = type { %class.QMap }
%class.QMap = type { ptr }

@_ZTV11GLLogStream = external unnamed_addr constant { [14 x ptr] }, align 8
@_ZN9QListData11shared_nullE = external global %"struct.QListData::Data", align 8
@_ZN12QMapDataBase11shared_nullE = external global %struct.QMapDataBase, align 8

; Function Attrs: mustprogress nounwind uwtable
define linkonce_odr void @_ZN4QMapI7QString5QPairIS0_S0_EEC2Ev(ptr noundef nonnull align 8 dereferenceable(8) %0) unnamed_addr #2 comdat align 2 {
  %2 = alloca ptr, align 8
  store ptr %0, ptr %2, align 8
  %3 = load ptr, ptr %2, align 8
  %4 = getelementptr inbounds %class.QMap, ptr %3, i32 0, i32 0
  store ptr @_ZN12QMapDataBase11shared_nullE, ptr %4, align 8
  ret void
}

; Function Attrs: mustprogress nounwind uwtable
define linkonce_odr void @_ZN9QMultiMapI7QString5QPairIS0_S0_EEC2Ev(ptr noundef nonnull align 8 dereferenceable(8) %0) unnamed_addr #2 comdat align 2 {
  %2 = alloca ptr, align 8
  store ptr %0, ptr %2, align 8
  %3 = load ptr, ptr %2, align 8
  call void @_ZN4QMapI7QString5QPairIS0_S0_EEC2Ev(ptr noundef nonnull align 8 dereferenceable(8) %3) #9
  ret void
}

; Function Attrs: mustprogress nounwind uwtable
define linkonce_odr void @_ZN5QListISt4pairIi7QStringEEC2Ev(ptr noundef nonnull align 8 dereferenceable(8) %0) unnamed_addr #2 comdat align 2 {
  %2 = alloca ptr, align 8
  store ptr %0, ptr %2, align 8
  %3 = load ptr, ptr %2, align 8
  %4 = getelementptr inbounds %class.QList, ptr %3, i32 0, i32 0
  store ptr @_ZN9QListData11shared_nullE, ptr %4, align 8
  ret void
}

; Function Attrs: mustprogress uwtable
define void @_ZN11GLLogStreamC2Ev(ptr noundef nonnull align 8 dereferenceable(40) %0) unnamed_addr #0 align 2 {
  %2 = alloca ptr, align 8
  store ptr %0, ptr %2, align 8
  %3 = load ptr, ptr %2, align 8
  call void @_ZN7QObjectC2EPS_(ptr noundef nonnull align 8 dereferenceable(16) %3, ptr noundef null)
  store ptr getelementptr inbounds ({ [14 x ptr] }, ptr @_ZTV11GLLogStream, i32 0, i32 0, i32 2), ptr %3, align 8
  %4 = getelementptr inbounds %class.GLLogStream, ptr %3, i32 0, i32 1
  store i32 -1, ptr %4, align 8
  %5 = getelementptr inbounds %class.GLLogStream, ptr %3, i32 0, i32 2
  call void @_ZN5QListISt4pairIi7QStringEEC2Ev(ptr noundef nonnull align 8 dereferenceable(8) %5) #9
  %6 = getelementptr inbounds %class.GLLogStream, ptr %3, i32 0, i32 3
  call void @_ZN9QMultiMapI7QString5QPairIS0_S0_EEC2Ev(ptr noundef nonnull align 8 dereferenceable(8) %6) #9
  ret void
}