; Function Attrs: mustprogress uwtable
define void @_ZN11GLLogStreamC2Ev(ptr noundef nonnull align 8 dereferenceable(40) %0) unnamed_addr #0 align 2 {
  tail call void @_ZN7QObjectC2EPS_(ptr noundef nonnull align 8 dereferenceable(16) %0, ptr noundef null)
  store ptr getelementptr inbounds ({ [14 x ptr] }, ptr @_ZTV11GLLogStream, i64 0, i32 0, i64 2), ptr %0, align 8
  %2 = getelementptr inbounds i8, ptr %0, i64 16
  store i32 -1, ptr %2, align 8
  %3 = getelementptr inbounds i8, ptr %0, i64 24
  store ptr @_ZN9QListData11shared_nullE, ptr %3, align 8
  %4 = getelementptr inbounds i8, ptr %0, i64 32
  store ptr @_ZN12QMapDataBase11shared_nullE, ptr %4, align 8
  ret void
}